; Function Attrs: nounwind uwtable
define ptr @agcanonStr(ptr noundef %0) local_unnamed_addr #0 {
  %2 = tail call i64 @strlen(ptr noundef nonnull readonly dereferenceable(1) %0) #10
  %3 = shl i64 %2, 1
  %4 = add i64 %3, 2
  %spec.select.i = tail call i64 @llvm.umax.i64(i64 %4, i64 8192)
  %5 = load i64, ptr @getoutputbuffer.len, align 8
  %6 = icmp ugt i64 %spec.select.i, %5
  %.pre.i = load ptr, ptr @getoutputbuffer.rv, align 8
  br i1 %6, label %7, label %getoutputbuffer.exit

7:                                                ; preds = %1
  %8 = tail call ptr @realloc(ptr noundef %.pre.i, i64 noundef %spec.select.i) #11
  %9 = icmp eq ptr %8, null
  br i1 %9, label %agstrcanon.exit, label %getoutputbuffer.exit.thread8

getoutputbuffer.exit.thread8:                     ; preds = %7
  store ptr %8, ptr @getoutputbuffer.rv, align 8
  store i64 %spec.select.i, ptr @getoutputbuffer.len, align 8
  br label %11

getoutputbuffer.exit:                             ; preds = %1
  %10 = icmp eq ptr %.pre.i, null
  br i1 %10, label %agstrcanon.exit, label %11

11:                                               ; preds = %getoutputbuffer.exit.thread8, %getoutputbuffer.exit
  %.0.i10 = phi ptr [ %8, %getoutputbuffer.exit.thread8 ], [ %.pre.i, %getoutputbuffer.exit ]
  %12 = tail call i32 @aghtmlstr(ptr noundef nonnull %0) #9
  %.not.i = icmp eq i32 %12, 0
  br i1 %.not.i, label %15, label %13

13:                                               ; preds = %11
  %14 = tail call i32 (ptr, ptr, ...) @sprintf(ptr noundef nonnull dereferenceable(1) %.0.i10, ptr noundef nonnull dereferenceable(1) @.str.1, ptr noundef nonnull %0) #9
  br label %agstrcanon.exit

15:                                               ; preds = %11
  %16 = tail call fastcc ptr @_agstrcanon(ptr noundef nonnull %0, ptr noundef nonnull %.0.i10)
  br label %agstrcanon.exit

agstrcanon.exit:                                  ; preds = %7, %15, %13, %getoutputbuffer.exit
  %.0 = phi ptr [ null, %getoutputbuffer.exit ], [ %.0.i10, %13 ], [ %16, %15 ], [ null, %7 ]
  ret ptr %.0
}